target datalayout = "e-m:e-p270:32:32-p271:32:32-p272:64:64-i64:64-i128:128-f80:128-n8:16:32:64-S128"
target triple = "x86_64-pc-linux-gnu"

%struct.H5C_cache_entry_t = type { ptr, i64, i64, ptr, i8, ptr, i8, i8, i8, i8, i32, i8, i8, i8, i8, i8, i32, ptr, i32, i32, i32, i32, i32, i8, i8, ptr, ptr, ptr, ptr, ptr, ptr, i8, i32, i8, i64, ptr, i64, i64, i32, i8, i32, i32, i8, ptr, ptr, ptr }

@.str.1 = private unnamed_addr constant [107 x i8] c"generated/home/dtcxzyw/WorkSpace/Projects/compilers/llvm-opt-benchmark/bench/hdf5/hdf5/src/H5Cprefetched.c\00", align 1
@H5E_CACHE_g = external global i64, align 8
@__func__.H5C__prefetched_entry_notify = private unnamed_addr constant [29 x i8] c"H5C__prefetched_entry_notify\00", align 1
@H5E_CANTUNDEPEND_g = external global i64, align 8
@.str.3 = private unnamed_addr constant [52 x i8] c"unable to destroy prefetched entry flush dependency\00", align 1
@H5E_ARGS_g = external global i64, align 8
@H5E_BADVALUE_g = external global i64, align 8
@.str.4 = private unnamed_addr constant [35 x i8] c"unknown action from metadata cache\00", align 1

; Function Attrs: nounwind uwtable
define internal i32 @H5C__prefetched_entry_notify(i32 noundef %0, ptr noundef %1) #0 {
  %3 = alloca i32, align 4
  %4 = alloca ptr, align 8
  %5 = alloca ptr, align 8
  %6 = alloca i32, align 4
  %7 = alloca i32, align 4
  %8 = alloca i8, align 1
  %9 = alloca ptr, align 8
  store i32 %0, ptr %3, align 4
  store ptr %1, ptr %4, align 8
  %10 = load ptr, ptr %4, align 8
  store ptr %10, ptr %5, align 8
  store i32 0, ptr %7, align 4
  store i8 0, ptr %8, align 1
  %11 = load i32, ptr %3, align 4
  switch i32 %11, label %62 [
    i32 0, label %12
    i32 1, label %12
    i32 2, label %12
    i32 4, label %12
    i32 5, label %12
    i32 6, label %12
    i32 7, label %12
    i32 8, label %12
    i32 9, label %12
    i32 3, label %13
  ]

12:                                               ; preds = %2, %2, %2, %2, %2, %2, %2, %2, %2
  br label %77

13:                                               ; preds = %2
  store i32 0, ptr %6, align 4
  br label %14

14:                                               ; preds = %58, %13
  %15 = load i32, ptr %6, align 4
  %16 = load ptr, ptr %5, align 8
  %17 = getelementptr inbounds %struct.H5C_cache_entry_t, ptr %16, i32 0, i32 18
  %18 = load i32, ptr %17, align 8
  %19 = icmp ult i32 %15, %18
  br i1 %19, label %20, label %61

20:                                               ; preds = %14
  %21 = load ptr, ptr %5, align 8
  %22 = getelementptr inbounds %struct.H5C_cache_entry_t, ptr %21, i32 0, i32 17
  %23 = load ptr, ptr %22, align 8
  %24 = load i32, ptr %6, align 4
  %25 = zext i32 %24 to i64
  %26 = getelementptr inbounds ptr, ptr %23, i64 %25
  %27 = load ptr, ptr %26, align 8
  store ptr %27, ptr %9, align 8
  %28 = load ptr, ptr %9, align 8
  %29 = load ptr, ptr %5, align 8
  %30 = call i32 @H5C_destroy_flush_dependency(ptr noundef %28, ptr noundef %29)
  %31 = icmp slt i32 %30, 0
  br i1 %31, label %32, label %47

32:                                               ; preds = %20
  br label %33

33:                                               ; preds = %32
  br label %34

34:                                               ; preds = %33
  br label %35

35:                                               ; preds = %34
  %36 = load i64, ptr @H5E_CACHE_g, align 8
  %37 = load i64, ptr @H5E_CANTUNDEPEND_g, align 8
  %38 = call i32 (ptr, ptr, i32, i64, i64, ptr, ...) @H5E_printf_stack(ptr noundef @.str.1, ptr noundef @__func__.H5C__prefetched_entry_notify, i32 noundef 246, i64 noundef %36, i64 noundef %37, ptr noundef @.str.3)
  br label %39

39:                                               ; preds = %35
  store i8 1, ptr %8, align 1
  %40 = load i8, ptr %8, align 1
  %41 = trunc i8 %40 to i1
  %42 = zext i1 %41 to i8
  store i8 %42, ptr %8, align 1
  br label %43

43:                                               ; preds = %39
  br label %44

44:                                               ; preds = %43
  store i32 -1, ptr %7, align 4
  br label %78

45:                                               ; No predecessors!
  br label %46

46:                                               ; preds = %45
  br label %47

47:                                               ; preds = %46, %20
  %48 = load ptr, ptr %9, align 8
  %49 = getelementptr inbounds %struct.H5C_cache_entry_t, ptr %48, i32 0, i32 39
  %50 = load i8, ptr %49, align 4
  %51 = trunc i8 %50 to i1
  br i1 %51, label %52, label %57

52:                                               ; preds = %47
  %53 = load ptr, ptr %9, align 8
  %54 = getelementptr inbounds %struct.H5C_cache_entry_t, ptr %53, i32 0, i32 36
  %55 = load i64, ptr %54, align 8
  %56 = add i64 %55, -1
  store i64 %56, ptr %54, align 8
  br label %57

57:                                               ; preds = %52, %47
  br label %58

58:                                               ; preds = %57
  %59 = load i32, ptr %6, align 4
  %60 = add i32 %59, 1
  store i32 %60, ptr %6, align 4
  br label %14

61:                                               ; preds = %14
  br label %77

62:                                               ; preds = %2
  br label %63

63:                                               ; preds = %62
  br label %64

64:                                               ; preds = %63
  br label %65

65:                                               ; preds = %64
  %66 = load i64, ptr @H5E_ARGS_g, align 8
  %67 = load i64, ptr @H5E_BADVALUE_g, align 8
  %68 = call i32 (ptr, ptr, i32, i64, i64, ptr, ...) @H5E_printf_stack(ptr noundef @.str.1, ptr noundef @__func__.H5C__prefetched_entry_notify, i32 noundef 261, i64 noundef %66, i64 noundef %67, ptr noundef @.str.4)
  br label %69

69:                                               ; preds = %65
  store i8 1, ptr %8, align 1
  %70 = load i8, ptr %8, align 1
  %71 = trunc i8 %70 to i1
  %72 = zext i1 %71 to i8
  store i8 %72, ptr %8, align 1
  br label %73

73:                                               ; preds = %69
  br label %74

74:                                               ; preds = %73
  store i32 -1, ptr %7, align 4
  br label %78

75:                                               ; No predecessors!
  br label %76

76:                                               ; preds = %75
  br label %77

77:                                               ; preds = %76, %61, %12
  br label %78

78:                                               ; preds = %77, %74, %44
  %79 = load i32, ptr %7, align 4
  ret i32 %79
}