; Function Attrs: nounwind uwtable
define internal range(i32 -1, 1) i32 @H5C__prefetched_entry_notify(i32 noundef %0, ptr noundef %1) #0 {
  switch i32 %0, label %28 [
    i32 0, label %.loopexit
    i32 1, label %.loopexit
    i32 2, label %.loopexit
    i32 4, label %.loopexit
    i32 5, label %.loopexit
    i32 6, label %.loopexit
    i32 7, label %.loopexit
    i32 8, label %.loopexit
    i32 9, label %.loopexit
    i32 3, label %.preheader
  ]

.preheader:                                       ; preds = %2
  %3 = getelementptr inbounds i8, ptr %1, i64 80
  %4 = load i32, ptr %3, align 8
  %.not = icmp eq i32 %4, 0
  br i1 %.not, label %.loopexit, label %.lr.ph

.lr.ph:                                           ; preds = %.preheader
  %5 = getelementptr inbounds i8, ptr %1, i64 72
  br label %6

6:                                                ; preds = %.lr.ph, %24
  %indvars.iv = phi i64 [ 0, %.lr.ph ], [ %indvars.iv.next, %24 ]
  %7 = load ptr, ptr %5, align 8
  %8 = getelementptr inbounds ptr, ptr %7, i64 %indvars.iv
  %9 = load ptr, ptr %8, align 8
  %10 = tail call i32 @H5C_destroy_flush_dependency(ptr noundef %9, ptr noundef nonnull %1) #2
  %11 = icmp slt i32 %10, 0
  br i1 %11, label %12, label %16

12:                                               ; preds = %6
  %13 = load i64, ptr @H5E_CACHE_g, align 8
  %14 = load i64, ptr @H5E_CANTUNDEPEND_g, align 8
  %15 = tail call i32 (ptr, ptr, i32, i64, i64, ptr, ...) @H5E_printf_stack(ptr noundef nonnull @.str.1, ptr noundef nonnull @__func__.H5C__prefetched_entry_notify, i32 noundef 246, i64 noundef %13, i64 noundef %14, ptr noundef nonnull @.str.3) #2
  br label %.loopexit

16:                                               ; preds = %6
  %17 = getelementptr inbounds i8, ptr %9, i64 204
  %18 = load i8, ptr %17, align 4
  %19 = trunc i8 %18 to i1
  br i1 %19, label %20, label %24

20:                                               ; preds = %16
  %21 = getelementptr inbounds i8, ptr %9, i64 184
  %22 = load i64, ptr %21, align 8
  %23 = add i64 %22, -1
  store i64 %23, ptr %21, align 8
  br label %24

24:                                               ; preds = %16, %20
  %indvars.iv.next = add nuw nsw i64 %indvars.iv, 1
  %25 = load i32, ptr %3, align 8
  %26 = zext i32 %25 to i64
  %27 = icmp ult i64 %indvars.iv.next, %26
  br i1 %27, label %6, label %.loopexit

28:                                               ; preds = %2
  %29 = load i64, ptr @H5E_ARGS_g, align 8
  %30 = load i64, ptr @H5E_BADVALUE_g, align 8
  %31 = tail call i32 (ptr, ptr, i32, i64, i64, ptr, ...) @H5E_printf_stack(ptr noundef nonnull @.str.1, ptr noundef nonnull @__func__.H5C__prefetched_entry_notify, i32 noundef 261, i64 noundef %29, i64 noundef %30, ptr noundef nonnull @.str.4) #2
  br label %.loopexit

.loopexit:                                        ; preds = %24, %.preheader, %2, %2, %2, %2, %2, %2, %2, %2, %2, %28, %12
  %.013 = phi i32 [ -1, %28 ], [ -1, %12 ], [ 0, %2 ], [ 0, %2 ], [ 0, %2 ], [ 0, %2 ], [ 0, %2 ], [ 0, %2 ], [ 0, %2 ], [ 0, %2 ], [ 0, %2 ], [ 0, %.preheader ], [ 0, %24 ]
  ret i32 %.013
}